; Function Attrs: mustprogress uwtable
define noundef nonnull align 8 dereferenceable(80) ptr @_ZN2cv4UMataSERKNS_7Scalar_IdEE(ptr noundef nonnull returned align 8 dereferenceable(80) %0, ptr noundef nonnull align 8 dereferenceable(32) %1) local_unnamed_addr #4 align 2 personality ptr @__gxx_personality_v0 {
  %3 = alloca %"class.cv::_InputArray", align 8
  call void @llvm.lifetime.start.p0(i64 24, ptr nonnull %3) #25
  %4 = getelementptr inbounds nuw i8, ptr %3, i64 16
  store i32 -1056833530, ptr %3, align 8, !tbaa !53
  %5 = getelementptr inbounds nuw i8, ptr %3, i64 8
  store ptr %1, ptr %5, align 8, !tbaa !56
  store i64 17179869185, ptr %4, align 8
  %6 = tail call noundef nonnull align 8 dereferenceable(24) ptr @_ZN2cv7noArrayEv()
  %7 = call noundef nonnull align 8 dereferenceable(80) ptr @_ZN2cv4UMat5setToERKNS_11_InputArrayES3_(ptr noundef nonnull align 8 dereferenceable(80) %0, ptr noundef nonnull align 8 dereferenceable(24) %3, ptr noundef nonnull align 8 dereferenceable(24) %6)
  call void @llvm.lifetime.end.p0(i64 24, ptr nonnull %3) #25
  ret ptr %0
}